(dp0
S'\x83'
p1
I0
sS'\x87'
p2
I1
sS'\x8b'
p3
I2
sS'\x8f'
p4
I3
sS'\x93'
p5
I4
sS'\x97'
p6
I5
sS'\x9b'
p7
I6
sS'\x9f'
p8
I7
sS' '
p9
I8
sS'\xa3'
p10
I9
sS'$'
p11
I10
sS'\xa7'
p12
I11
sS'('
p13
I12
sS'\xab'
p14
I13
sS','
p15
I14
sS'\xaf'
p16
I15
sS'0'
p17
I16
sS'\xb3'
p18
I17
sS'4'
p19
I18
sS'\xb7'
p20
I19
sS'8'
p21
I20
sS'\xbb'
p22
I21
sS'\xbf'
p23
I22
sS'@'
p24
I23
sS'\xc3'
p25
I24
sS'\\'
p26
I25
sS'`'
p27
I26
sS'\xe3'
p28
I27
sS'd'
p29
I28
sS'\xe7'
p30
I29
sS'h'
p31
I30
sS'l'
p32
I31
sS'\xef'
p33
I32
sS'p'
p34
I33
sS't'
p35
I34
sS'x'
p36
I35
sS'|'
p37
I36
sS'\x80'
p38
I37
sS'\x84'
p39
I38
sS'\x88'
p40
I39
sS'\x8c'
p41
I40
sS'\x90'
p42
I41
sS'\x94'
p43
I42
sS'\x98'
p44
I43
sS'\x9c'
p45
I44
sS'\xa0'
p46
I45
sS'\xa4'
p47
I46
sS"'"
p48
I47
sS'\xa8'
p49
I48
sS'+'
p50
I49
sS'\xac'
p51
I50
sS'/'
p52
I51
sS'\xb0'
p53
I52
sS'3'
p54
I53
sS'\xb4'
p55
I54
sS'7'
p56
I55
sS'\xb8'
p57
I56
sS';'
p58
I57
sS'\xbc'
p59
I58
sS'?'
p60
I59
sS'['
p61
I60
sS'_'
p62
I61
sS'c'
p63
I62
sS'\xe4'
p64
I63
sS'g'
p65
I64
sS'\xe8'
p66
I65
sS'k'
p67
I66
sS'o'
p68
I67
sS's'
p69
I68
sS'w'
p70
I69
sS'\x81'
p71
I70
sS'\x85'
p72
I71
sS'\x89'
p73
I72
sS'\x8d'
p74
I73
sS'\x91'
p75
I74
sS'\x95'
p76
I75
sS'\x99'
p77
I76
sS'\x9d'
p78
I77
sS'\xa1'
p79
I78
sS'"'
p80
I79
sS'\xa5'
p81
I80
sS'&'
p82
I81
sS'\xa9'
p83
I82
sS'*'
p84
I83
sS'\xad'
p85
I84
sS'.'
p86
I85
sS'\xb1'
p87
I86
sS'2'
p88
I87
sS'\xb5'
p89
I88
sS'6'
p90
I89
sS'\xb9'
p91
I90
sS':'
p92
I91
sS'\xbd'
p93
I92
sS'UNK'
p94
I93
sS'b'
p95
I94
sS'\xe5'
p96
I95
sS'f'
p97
I96
sS'\xe9'
p98
I97
sS'j'
p99
I98
sS'n'
p100
I99
sS'r'
p101
I100
sS'v'
p102
I101
sS'z'
p103
I102
sS'~'
p104
I103
sS'\x82'
p105
I104
sS'\x86'
p106
I105
sS'\x8a'
p107
I106
sS'\x8e'
p108
I107
sS'\x92'
p109
I108
sS'\x96'
p110
I109
sS'\x9a'
p111
I110
sS'\x9e'
p112
I111
sS'!'
p113
I112
sS'\xa2'
p114
I113
sS'%'
p115
I114
sS'\xa6'
p116
I115
sS')'
p117
I116
sS'\xaa'
p118
I117
sS'-'
p119
I118
sS'\xae'
p120
I119
sS'1'
p121
I120
sS'\xb2'
p122
I121
sS'5'
p123
I122
sS'\xb6'
p124
I123
sS'9'
p125
I124
sS'\xba'
p126
I125
sS'='
p127
I126
sS'\xbe'
p128
I127
sS'\xc2'
p129
I128
sS']'
p130
I129
sS'a'
p131
I130
sS'\xe2'
p132
I131
sS'e'
p133
I132
sS'\xe6'
p134
I133
sS'i'
p135
I134
sS'm'
p136
I135
sS'q'
p137
I136
sS'u'
p138
I137
sS'y'
p139
I138
s.